target datalayout = "e-m:e-p270:32:32-p271:32:32-p272:64:64-i64:64-i128:128-f80:128-n8:16:32:64-S128"
target triple = "x86_64-pc-linux-gnu"

%"class.std::__cxx11::basic_string" = type { %"struct.std::__cxx11::basic_string<char>::_Alloc_hider", i64, %union.anon }
%"struct.std::__cxx11::basic_string<char>::_Alloc_hider" = type { ptr }
%union.anon = type { i64, [8 x i8] }
%"class.zmq::socket_base_t::inprocs_t" = type { %"class.std::multimap" }
%"class.std::multimap" = type { %"class.std::_Rb_tree" }
%"class.std::_Rb_tree" = type { %"struct.std::_Rb_tree<std::__cxx11::basic_string<char>, std::pair<const std::__cxx11::basic_string<char>, zmq::pipe_t *>, std::_Select1st<std::pair<const std::__cxx11::basic_string<char>, zmq::pipe_t *>>, std::less<std::__cxx11::basic_string<char>>>::_Rb_tree_impl" }
%"struct.std::_Rb_tree<std::__cxx11::basic_string<char>, std::pair<const std::__cxx11::basic_string<char>, zmq::pipe_t *>, std::_Select1st<std::pair<const std::__cxx11::basic_string<char>, zmq::pipe_t *>>, std::less<std::__cxx11::basic_string<char>>>::_Rb_tree_impl" = type { [8 x i8], %"struct.std::_Rb_tree_header" }
%"struct.std::_Rb_tree_header" = type { %"struct.std::_Rb_tree_node_base", i64 }
%"struct.std::_Rb_tree_node_base" = type { i32, ptr, ptr, ptr }
%"class.zmq::socket_base_t" = type <{ %"class.zmq::own_t.base", [4 x i8], %"class.zmq::array_item_t.base.49", [4 x i8], %"struct.zmq::i_poll_events", %"struct.zmq::i_pipe_events", %"class.zmq::mutex_t", %"class.std::multimap.50", %"class.zmq::socket_base_t::inprocs_t", i32, i8, i8, [2 x i8], ptr, %"class.zmq::array_t", ptr, ptr, i64, i32, i8, [3 x i8], %"class.zmq::clock_t", ptr, i64, %"class.std::__cxx11::basic_string", i8, [7 x i8], ptr, %"class.zmq::mutex_t", i8, [7 x i8] }>
%"class.zmq::own_t.base" = type <{ %"class.zmq::object_t.base", [4 x i8], %"struct.zmq::options_t", i8, [7 x i8], %"class.zmq::atomic_counter_t", i64, ptr, %"class.std::set.42", i32 }>
%"class.zmq::object_t.base" = type <{ ptr, ptr, i32 }>
%"struct.zmq::options_t" = type { i32, i32, i64, i8, [256 x i8], i32, i32, i32, i32, i32, i32, i32, i32, i8, %"struct.zmq::atomic_value_t", i32, i32, i32, i32, i32, i32, i64, i32, i32, i8, i32, i8, i8, i8, i8, i8, %"class.std::__cxx11::basic_string", %"class.std::__cxx11::basic_string", %"class.std::__cxx11::basic_string", i32, i32, i32, i32, %"class.std::vector", %"class.std::set", %"class.std::set", %"class.std::set.25", i32, i32, %"class.std::__cxx11::basic_string", %"class.std::__cxx11::basic_string", %"class.std::__cxx11::basic_string", [32 x i8], [32 x i8], [32 x i8], %"class.std::__cxx11::basic_string", %"class.std::__cxx11::basic_string", i32, i32, i8, i32, i8, i32, i8, i16, i32, i32, i32, %"class.std::__cxx11::basic_string", i8, i8, i8, i32, i32, i8, i32, %"class.std::map", i32, %"class.std::__cxx11::basic_string", %"class.std::__cxx11::basic_string", %"class.std::__cxx11::basic_string", %"class.std::__cxx11::basic_string", i8, %"class.std::vector.35", i8, %"class.std::vector.35", i8, %"class.std::vector.35", i8, i32, i8, i32, i32, i32, i32, i32, i8, i32 }
%"struct.zmq::atomic_value_t" = type { %"struct.std::atomic" }
%"struct.std::atomic" = type { %"struct.std::__atomic_base" }
%"struct.std::__atomic_base" = type { i32 }
%"class.std::vector" = type { %"struct.std::_Vector_base" }
%"struct.std::_Vector_base" = type { %"struct.std::_Vector_base<zmq::tcp_address_mask_t, std::allocator<zmq::tcp_address_mask_t>>::_Vector_impl" }
%"struct.std::_Vector_base<zmq::tcp_address_mask_t, std::allocator<zmq::tcp_address_mask_t>>::_Vector_impl" = type { %"struct.std::_Vector_base<zmq::tcp_address_mask_t, std::allocator<zmq::tcp_address_mask_t>>::_Vector_impl_data" }
%"struct.std::_Vector_base<zmq::tcp_address_mask_t, std::allocator<zmq::tcp_address_mask_t>>::_Vector_impl_data" = type { ptr, ptr, ptr }
%"class.std::set" = type { %"class.std::_Rb_tree.20" }
%"class.std::_Rb_tree.20" = type { %"struct.std::_Rb_tree<unsigned int, unsigned int, std::_Identity<unsigned int>, std::less<unsigned int>>::_Rb_tree_impl" }
%"struct.std::_Rb_tree<unsigned int, unsigned int, std::_Identity<unsigned int>, std::less<unsigned int>>::_Rb_tree_impl" = type { [8 x i8], %"struct.std::_Rb_tree_header" }
%"class.std::set.25" = type { %"class.std::_Rb_tree.26" }
%"class.std::_Rb_tree.26" = type { %"struct.std::_Rb_tree<int, int, std::_Identity<int>, std::less<int>>::_Rb_tree_impl" }
%"struct.std::_Rb_tree<int, int, std::_Identity<int>, std::less<int>>::_Rb_tree_impl" = type { [8 x i8], %"struct.std::_Rb_tree_header" }
%"class.std::map" = type { %"class.std::_Rb_tree.31" }
%"class.std::_Rb_tree.31" = type { %"struct.std::_Rb_tree<std::__cxx11::basic_string<char>, std::pair<const std::__cxx11::basic_string<char>, std::__cxx11::basic_string<char>>, std::_Select1st<std::pair<const std::__cxx11::basic_string<char>, std::__cxx11::basic_string<char>>>, std::less<std::__cxx11::basic_string<char>>>::_Rb_tree_impl" }
%"struct.std::_Rb_tree<std::__cxx11::basic_string<char>, std::pair<const std::__cxx11::basic_string<char>, std::__cxx11::basic_string<char>>, std::_Select1st<std::pair<const std::__cxx11::basic_string<char>, std::__cxx11::basic_string<char>>>, std::less<std::__cxx11::basic_string<char>>>::_Rb_tree_impl" = type { [8 x i8], %"struct.std::_Rb_tree_header" }
%"class.std::vector.35" = type { %"struct.std::_Vector_base.36" }
%"struct.std::_Vector_base.36" = type { %"struct.std::_Vector_base<unsigned char, std::allocator<unsigned char>>::_Vector_impl" }
%"struct.std::_Vector_base<unsigned char, std::allocator<unsigned char>>::_Vector_impl" = type { %"struct.std::_Vector_base<unsigned char, std::allocator<unsigned char>>::_Vector_impl_data" }
%"struct.std::_Vector_base<unsigned char, std::allocator<unsigned char>>::_Vector_impl_data" = type { ptr, ptr, ptr }
%"class.zmq::atomic_counter_t" = type { %"struct.std::atomic.40", [4 x i8] }
%"struct.std::atomic.40" = type { %"struct.std::__atomic_base.41" }
%"struct.std::__atomic_base.41" = type { i32 }
%"class.std::set.42" = type { %"class.std::_Rb_tree.43" }
%"class.std::_Rb_tree.43" = type { %"struct.std::_Rb_tree<zmq::own_t *, zmq::own_t *, std::_Identity<zmq::own_t *>, std::less<zmq::own_t *>>::_Rb_tree_impl" }
%"struct.std::_Rb_tree<zmq::own_t *, zmq::own_t *, std::_Identity<zmq::own_t *>, std::less<zmq::own_t *>>::_Rb_tree_impl" = type { [8 x i8], %"struct.std::_Rb_tree_header" }
%"class.zmq::array_item_t.base.49" = type <{ ptr, i32 }>
%"struct.zmq::i_poll_events" = type { ptr }
%"struct.zmq::i_pipe_events" = type { ptr }
%"class.std::multimap.50" = type { %"class.std::_Rb_tree.51" }
%"class.std::_Rb_tree.51" = type { %"struct.std::_Rb_tree<std::__cxx11::basic_string<char>, std::pair<const std::__cxx11::basic_string<char>, std::pair<zmq::own_t *, zmq::pipe_t *>>, std::_Select1st<std::pair<const std::__cxx11::basic_string<char>, std::pair<zmq::own_t *, zmq::pipe_t *>>>, std::less<std::__cxx11::basic_string<char>>>::_Rb_tree_impl" }
%"struct.std::_Rb_tree<std::__cxx11::basic_string<char>, std::pair<const std::__cxx11::basic_string<char>, std::pair<zmq::own_t *, zmq::pipe_t *>>, std::_Select1st<std::pair<const std::__cxx11::basic_string<char>, std::pair<zmq::own_t *, zmq::pipe_t *>>>, std::less<std::__cxx11::basic_string<char>>>::_Rb_tree_impl" = type { [8 x i8], %"struct.std::_Rb_tree_header" }
%"class.zmq::array_t" = type { %"class.std::vector.55" }
%"class.std::vector.55" = type { %"struct.std::_Vector_base.56" }
%"struct.std::_Vector_base.56" = type { %"struct.std::_Vector_base<zmq::pipe_t *, std::allocator<zmq::pipe_t *>>::_Vector_impl" }
%"struct.std::_Vector_base<zmq::pipe_t *, std::allocator<zmq::pipe_t *>>::_Vector_impl" = type { %"struct.std::_Vector_base<zmq::pipe_t *, std::allocator<zmq::pipe_t *>>::_Vector_impl_data" }
%"struct.std::_Vector_base<zmq::pipe_t *, std::allocator<zmq::pipe_t *>>::_Vector_impl_data" = type { ptr, ptr, ptr }
%"class.zmq::clock_t" = type { i64, i64 }
%"class.zmq::mutex_t" = type <{ %union.pthread_mutex_t, %union.pthread_mutexattr_t, [4 x i8] }>
%union.pthread_mutex_t = type { %struct.__pthread_mutex_s }
%struct.__pthread_mutex_s = type { i32, i32, i32, i32, i32, i16, i16, %struct.__pthread_internal_list }
%struct.__pthread_internal_list = type { ptr, ptr }
%union.pthread_mutexattr_t = type { i32 }
%"struct.zmq::command_t" = type { ptr, i32, %"union.zmq::command_t::args_t", [24 x i8] }
%"union.zmq::command_t::args_t" = type { %struct.anon.181 }
%struct.anon.181 = type { i64, ptr, ptr }

@stderr = external global ptr, align 8
@.str.1 = private unnamed_addr constant [111 x i8] c"generated/home/dtcxzyw/WorkSpace/Projects/compilers/llvm-opt-benchmark/bench/libzmq/libzmq/src/socket_base.cpp\00", align 1
@.str.3 = private unnamed_addr constant [30 x i8] c"Assertion failed: %s (%s:%d)\0A\00", align 1
@.str.13 = private unnamed_addr constant [16 x i8] c"errno == EAGAIN\00", align 1

; Function Attrs: mustprogress uwtable
define noundef i32 @_ZN3zmq13socket_base_t16process_commandsEib(ptr noundef nonnull align 8 dereferenceable(1825) %0, i32 noundef %1, i1 noundef zeroext %2) #0 align 2 {
  %4 = alloca i32, align 4
  %5 = alloca ptr, align 8
  %6 = alloca i32, align 4
  %7 = alloca i8, align 1
  %8 = alloca i64, align 8
  %9 = alloca i32, align 4
  %10 = alloca %"struct.zmq::command_t", align 64
  %11 = alloca i32, align 4
  store ptr %0, ptr %5, align 8, !tbaa !42
  store i32 %1, ptr %6, align 4, !tbaa !21
  %12 = zext i1 %2 to i8
  store i8 %12, ptr %7, align 1, !tbaa !121
  %13 = load ptr, ptr %5, align 8
  %14 = load i32, ptr %6, align 4, !tbaa !21
  %15 = icmp eq i32 %14, 0
  br i1 %15, label %16, label %42

16:                                               ; preds = %3
  call void @llvm.lifetime.start.p0(i64 8, ptr %8) #21
  %17 = call noundef i64 @_ZN3zmq7clock_t5rdtscEv()
  store i64 %17, ptr %8, align 8, !tbaa !153
  %18 = load i64, ptr %8, align 8, !tbaa !153
  %19 = icmp ne i64 %18, 0
  br i1 %19, label %20, label %38

20:                                               ; preds = %16
  %21 = load i8, ptr %7, align 1, !tbaa !121, !range !112, !noundef !113
  %22 = trunc i8 %21 to i1
  br i1 %22, label %23, label %38

23:                                               ; preds = %20
  %24 = load i64, ptr %8, align 8, !tbaa !153
  %25 = getelementptr inbounds nuw %"class.zmq::socket_base_t", ptr %13, i32 0, i32 17
  %26 = load i64, ptr %25, align 8, !tbaa !125
  %27 = icmp uge i64 %24, %26
  br i1 %27, label %28, label %35

28:                                               ; preds = %23
  %29 = load i64, ptr %8, align 8, !tbaa !153
  %30 = getelementptr inbounds nuw %"class.zmq::socket_base_t", ptr %13, i32 0, i32 17
  %31 = load i64, ptr %30, align 8, !tbaa !125
  %32 = sub i64 %29, %31
  %33 = icmp ule i64 %32, 3000000
  br i1 %33, label %34, label %35

34:                                               ; preds = %28
  store i32 0, ptr %4, align 4
  store i32 1, ptr %9, align 4
  br label %39

35:                                               ; preds = %28, %23
  %36 = load i64, ptr %8, align 8, !tbaa !153
  %37 = getelementptr inbounds nuw %"class.zmq::socket_base_t", ptr %13, i32 0, i32 17
  store i64 %36, ptr %37, align 8, !tbaa !125
  br label %38

38:                                               ; preds = %35, %20, %16
  store i32 0, ptr %9, align 4
  br label %39

39:                                               ; preds = %38, %34
  call void @llvm.lifetime.end.p0(i64 8, ptr %8) #21
  %40 = load i32, ptr %9, align 4
  switch i32 %40, label %106 [
    i32 0, label %41
    i32 1, label %104
  ]

41:                                               ; preds = %39
  br label %42

42:                                               ; preds = %41, %3
  call void @llvm.lifetime.start.p0(i64 64, ptr %10) #21
  call void @llvm.lifetime.start.p0(i64 4, ptr %11) #21
  %43 = getelementptr inbounds nuw %"class.zmq::socket_base_t", ptr %13, i32 0, i32 13
  %44 = load ptr, ptr %43, align 8, !tbaa !117
  %45 = load i32, ptr %6, align 4, !tbaa !21
  %46 = load ptr, ptr %44, align 8, !tbaa !119
  %47 = getelementptr inbounds ptr, ptr %46, i64 3
  %48 = load ptr, ptr %47, align 8
  %49 = call noundef i32 %48(ptr noundef nonnull align 8 dereferenceable(8) %44, ptr noundef %10, i32 noundef %45)
  store i32 %49, ptr %11, align 4, !tbaa !21
  %50 = load i32, ptr %11, align 4, !tbaa !21
  %51 = icmp ne i32 %50, 0
  br i1 %51, label %52, label %57

52:                                               ; preds = %42
  %53 = call ptr @__errno_location() #24
  %54 = load i32, ptr %53, align 4, !tbaa !21
  %55 = icmp eq i32 %54, 4
  br i1 %55, label %56, label %57

56:                                               ; preds = %52
  store i32 -1, ptr %4, align 4
  store i32 1, ptr %9, align 4
  br label %103

57:                                               ; preds = %52, %42
  br label %58

58:                                               ; preds = %73, %57
  %59 = load i32, ptr %11, align 4, !tbaa !21
  %60 = icmp eq i32 %59, 0
  br i1 %60, label %65, label %61

61:                                               ; preds = %58
  %62 = call ptr @__errno_location() #24
  %63 = load i32, ptr %62, align 4, !tbaa !21
  %64 = icmp eq i32 %63, 4
  br label %65

65:                                               ; preds = %61, %58
  %66 = phi i1 [ true, %58 ], [ %64, %61 ]
  br i1 %66, label %67, label %80

67:                                               ; preds = %65
  %68 = load i32, ptr %11, align 4, !tbaa !21
  %69 = icmp eq i32 %68, 0
  br i1 %69, label %70, label %73

70:                                               ; preds = %67
  %71 = getelementptr inbounds nuw %"struct.zmq::command_t", ptr %10, i32 0, i32 0
  %72 = load ptr, ptr %71, align 64, !tbaa !169
  call void @_ZN3zmq8object_t15process_commandERKNS_9command_tE(ptr noundef nonnull align 8 dereferenceable(20) %72, ptr noundef nonnull align 64 dereferenceable(64) %10)
  br label %73

73:                                               ; preds = %70, %67
  %74 = getelementptr inbounds nuw %"class.zmq::socket_base_t", ptr %13, i32 0, i32 13
  %75 = load ptr, ptr %74, align 8, !tbaa !117
  %76 = load ptr, ptr %75, align 8, !tbaa !119
  %77 = getelementptr inbounds ptr, ptr %76, i64 3
  %78 = load ptr, ptr %77, align 8
  %79 = call noundef i32 %78(ptr noundef nonnull align 8 dereferenceable(8) %75, ptr noundef %10, i32 noundef 0)
  store i32 %79, ptr %11, align 4, !tbaa !21
  br label %58, !llvm.loop !173

80:                                               ; preds = %65
  br label %81

81:                                               ; preds = %80
  %82 = call ptr @__errno_location() #24
  %83 = load i32, ptr %82, align 4, !tbaa !21
  %84 = icmp eq i32 %83, 11
  %85 = xor i1 %84, true
  %86 = zext i1 %85 to i64
  %87 = call i64 @llvm.expect.i64(i64 %86, i64 0)
  %88 = icmp ne i64 %87, 0
  br i1 %88, label %89, label %94

89:                                               ; preds = %81
  %90 = load ptr, ptr @stderr, align 8, !tbaa !115
  %91 = call i32 (ptr, ptr, ...) @fprintf(ptr noundef %90, ptr noundef @.str.3, ptr noundef @.str.13, ptr noundef @.str.1, i32 noundef 1492) #21
  %92 = load ptr, ptr @stderr, align 8, !tbaa !115
  %93 = call i32 @fflush(ptr noundef %92)
  call void @_ZN3zmq9zmq_abortEPKc(ptr noundef @.str.13)
  br label %94

94:                                               ; preds = %89, %81
  br label %95

95:                                               ; preds = %94
  br label %96

96:                                               ; preds = %95
  %97 = getelementptr inbounds nuw %"class.zmq::socket_base_t", ptr %13, i32 0, i32 10
  %98 = load i8, ptr %97, align 4, !tbaa !122, !range !112, !noundef !113
  %99 = trunc i8 %98 to i1
  br i1 %99, label %100, label %102

100:                                              ; preds = %96
  %101 = call ptr @__errno_location() #24
  store i32 156384765, ptr %101, align 4, !tbaa !21
  store i32 -1, ptr %4, align 4
  store i32 1, ptr %9, align 4
  br label %103

102:                                              ; preds = %96
  store i32 0, ptr %4, align 4
  store i32 1, ptr %9, align 4
  br label %103

103:                                              ; preds = %102, %100, %56
  call void @llvm.lifetime.end.p0(i64 4, ptr %11) #21
  call void @llvm.lifetime.end.p0(i64 64, ptr %10) #21
  br label %104

104:                                              ; preds = %103, %39
  %105 = load i32, ptr %4, align 4
  ret i32 %105

106:                                              ; preds = %39
  unreachable
}