; Function Attrs: mustprogress uwtable
define noundef range(i32 -1, 1) i32 @_ZN3zmq13socket_base_t16process_commandsEib(ptr noundef nonnull align 8 captures(none) dereferenceable(1825) %0, i32 noundef %1, i1 noundef zeroext %2) local_unnamed_addr #0 align 2 {
  %4 = alloca %"struct.zmq::command_t", align 64
  %5 = icmp eq i32 %1, 0
  br i1 %5, label %6, label %.thread

6:                                                ; preds = %3
  %7 = tail call noundef i64 @_ZN3zmq7clock_t5rdtscEv()
  %.not = icmp ne i64 %7, 0
  %brmerge.not = and i1 %2, %.not
  br i1 %brmerge.not, label %8, label %.thread

8:                                                ; preds = %6
  %9 = getelementptr inbounds nuw i8, ptr %0, i64 1680
  %10 = load i64, ptr %9, align 8, !tbaa !144
  %.not17 = icmp uge i64 %7, %10
  %11 = sub nuw i64 %7, %10
  %12 = icmp ult i64 %11, 3000001
  %or.cond = select i1 %.not17, i1 %12, i1 false
  br i1 %or.cond, label %45, label %13

13:                                               ; preds = %8
  store i64 %7, ptr %9, align 8, !tbaa !144
  br label %.thread

.thread:                                          ; preds = %13, %6, %3
  call void @llvm.lifetime.start.p0(i64 64, ptr nonnull %4) #36
  %14 = getelementptr inbounds nuw i8, ptr %0, i64 1632
  %15 = load ptr, ptr %14, align 8, !tbaa !99
  %16 = load ptr, ptr %15, align 8, !tbaa !103
  %17 = getelementptr inbounds nuw i8, ptr %16, i64 24
  %18 = load ptr, ptr %17, align 8
  %19 = call noundef i32 %18(ptr noundef nonnull align 8 dereferenceable(8) %15, ptr noundef nonnull %4, i32 noundef %1)
  %.not18 = icmp eq i32 %19, 0
  br i1 %.not18, label %.preheader, label %20

20:                                               ; preds = %.thread
  %21 = tail call ptr @__errno_location() #39
  %22 = load i32, ptr %21, align 4, !tbaa !17
  %23 = icmp eq i32 %22, 4
  br i1 %23, label %44, label %.preheader

.preheader:                                       ; preds = %20, %.thread
  %.0.ph = phi i32 [ %19, %.thread ], [ 1, %20 ]
  br label %24

24:                                               ; preds = %.preheader, %.critedge
  %.0 = phi i32 [ %34, %.critedge ], [ %.0.ph, %.preheader ]
  %25 = icmp eq i32 %.0, 0
  br i1 %25, label %.critedge22, label %26

26:                                               ; preds = %24
  %27 = tail call ptr @__errno_location() #39
  %28 = load i32, ptr %27, align 4, !tbaa !17
  switch i32 %28, label %35 [
    i32 4, label %.critedge
    i32 11, label %.loopexit
  ], !prof !145

.critedge22:                                      ; preds = %24
  %29 = load ptr, ptr %4, align 64, !tbaa !146
  call void @_ZN3zmq8object_t15process_commandERKNS_9command_tE(ptr noundef nonnull align 8 dereferenceable(20) %29, ptr noundef nonnull align 64 dereferenceable(64) %4)
  br label %.critedge

.critedge:                                        ; preds = %26, %.critedge22
  %30 = load ptr, ptr %14, align 8, !tbaa !99
  %31 = load ptr, ptr %30, align 8, !tbaa !103
  %32 = getelementptr inbounds nuw i8, ptr %31, i64 24
  %33 = load ptr, ptr %32, align 8
  %34 = call noundef i32 %33(ptr noundef nonnull align 8 dereferenceable(8) %30, ptr noundef nonnull %4, i32 noundef 0)
  br label %24, !llvm.loop !150

35:                                               ; preds = %26
  %36 = load ptr, ptr @stderr, align 8, !tbaa !100
  %37 = call i32 (ptr, ptr, ...) @fprintf(ptr noundef %36, ptr noundef nonnull @.str.3, ptr noundef nonnull @.str.13, ptr noundef nonnull @.str.1, i32 noundef 1492) #42
  %38 = load ptr, ptr @stderr, align 8, !tbaa !100
  %39 = call i32 @fflush(ptr noundef %38)
  call void @_ZN3zmq9zmq_abortEPKc(ptr noundef nonnull @.str.13)
  br label %.loopexit

.loopexit:                                        ; preds = %26, %35
  %40 = getelementptr inbounds nuw i8, ptr %0, i64 1628
  %41 = load i8, ptr %40, align 4, !tbaa !109, !range !97, !noundef !98
  %42 = trunc nuw i8 %41 to i1
  br i1 %42, label %43, label %44

43:                                               ; preds = %.loopexit
  store i32 156384765, ptr %27, align 4, !tbaa !17
  br label %44

44:                                               ; preds = %.loopexit, %20, %43
  %.2 = phi i32 [ -1, %43 ], [ -1, %20 ], [ 0, %.loopexit ]
  call void @llvm.lifetime.end.p0(i64 64, ptr nonnull %4) #36
  br label %45

45:                                               ; preds = %8, %44
  %.1 = phi i32 [ %.2, %44 ], [ 0, %8 ]
  ret i32 %.1
}